target datalayout = "e-m:e-p270:32:32-p271:32:32-p272:64:64-i64:64-i128:128-f80:128-n8:16:32:64-S128"
target triple = "x86_64-pc-linux-gnu"

%"class.testing::internal::ThreadLocal.253" = type { i32, %"class.std::unique_ptr.254" }
%"class.std::unique_ptr.254" = type { %"struct.std::__uniq_ptr_data.255" }
%"struct.std::__uniq_ptr_data.255" = type { %"class.std::__uniq_ptr_impl.256" }
%"class.std::__uniq_ptr_impl.256" = type { %"class.std::tuple.257" }
%"class.std::tuple.257" = type { %"struct.std::_Tuple_impl.258" }
%"struct.std::_Tuple_impl.258" = type { %"struct.std::_Head_base.261" }
%"struct.std::_Head_base.261" = type { ptr }
%"class.std::__shared_count" = type { ptr }
%"class.testing::Sequence" = type { %"class.std::shared_ptr.295" }
%"class.std::shared_ptr.295" = type { %"class.std::__shared_ptr.296" }
%"class.std::__shared_ptr.296" = type { ptr, %"class.std::__shared_count" }
%"class.testing::InSequence" = type { i8 }

@_ZN7testing8internal25g_gmock_implicit_sequenceE = dso_local global %"class.testing::internal::ThreadLocal.253" zeroinitializer, align 8
@_ZN7testing11ExpectationC1Ev = dso_local unnamed_addr alias void (ptr), ptr @_ZN7testing11ExpectationC2Ev

; Function Attrs: mustprogress nounwind uwtable
define linkonce_odr hidden void @_ZNSt12__shared_ptrIN7testing11ExpectationELN9__gnu_cxx12_Lock_policyE2EE31_M_enable_shared_from_this_withIS1_S1_EENSt9enable_ifIXntsr15__has_esft_baseIT0_EE5valueEvE4typeEPT_(ptr noundef nonnull align 8 dereferenceable(16) %0, ptr noundef %1) #6 comdat align 2 {
  %3 = alloca ptr, align 8
  %4 = alloca ptr, align 8
  store ptr %0, ptr %3, align 8, !tbaa !1823
  store ptr %1, ptr %4, align 8, !tbaa !1027
  ret void
}

; Function Attrs: mustprogress uwtable
define linkonce_odr hidden void @_ZNSt14__shared_countILN9__gnu_cxx12_Lock_policyE2EEC2IPN7testing11ExpectationEEET_St17integral_constantIbLb0EE(ptr noundef nonnull align 8 dereferenceable(8) %0, ptr noundef %1) unnamed_addr #4 comdat align 2 {
  %3 = alloca ptr, align 8
  %4 = alloca ptr, align 8
  store ptr %0, ptr %3, align 8, !tbaa !1584
  store ptr %1, ptr %4, align 8, !tbaa !1027
  %5 = load ptr, ptr %3, align 8
  %6 = load ptr, ptr %4, align 8, !tbaa !1027
  call void @_ZNSt14__shared_countILN9__gnu_cxx12_Lock_policyE2EEC2IPN7testing11ExpectationEEET_(ptr noundef nonnull align 8 dereferenceable(8) %5, ptr noundef %6)
  ret void
}

; Function Attrs: mustprogress uwtable
define linkonce_odr hidden void @_ZNSt12__shared_ptrIN7testing11ExpectationELN9__gnu_cxx12_Lock_policyE2EEC2IS1_vEEPT_(ptr noundef nonnull align 8 dereferenceable(16) %0, ptr noundef %1) unnamed_addr #4 comdat align 2 {
  %3 = alloca ptr, align 8
  %4 = alloca ptr, align 8
  store ptr %0, ptr %3, align 8, !tbaa !1823
  store ptr %1, ptr %4, align 8, !tbaa !1027
  %5 = load ptr, ptr %3, align 8
  %6 = getelementptr inbounds nuw %"class.std::__shared_ptr.296", ptr %5, i32 0, i32 0
  %7 = load ptr, ptr %4, align 8, !tbaa !1027
  store ptr %7, ptr %6, align 8, !tbaa !1825
  %8 = getelementptr inbounds nuw %"class.std::__shared_ptr.296", ptr %5, i32 0, i32 1
  %9 = load ptr, ptr %4, align 8, !tbaa !1027
  call void @_ZNSt14__shared_countILN9__gnu_cxx12_Lock_policyE2EEC2IPN7testing11ExpectationEEET_St17integral_constantIbLb0EE(ptr noundef nonnull align 8 dereferenceable(8) %8, ptr noundef %9)
  %10 = load ptr, ptr %4, align 8, !tbaa !1027
  call void @_ZNSt12__shared_ptrIN7testing11ExpectationELN9__gnu_cxx12_Lock_policyE2EE31_M_enable_shared_from_this_withIS1_S1_EENSt9enable_ifIXntsr15__has_esft_baseIT0_EE5valueEvE4typeEPT_(ptr noundef nonnull align 8 dereferenceable(16) %5, ptr noundef %10) #3
  ret void
}

; Function Attrs: mustprogress uwtable
define linkonce_odr hidden noundef ptr @_ZN7testing8internal11ThreadLocalIPNS_8SequenceEE7pointerEv(ptr noundef nonnull align 8 dereferenceable(16) %0) #4 comdat align 2 {
  %2 = alloca ptr, align 8
  store ptr %0, ptr %2, align 8, !tbaa !1048
  %3 = load ptr, ptr %2, align 8
  %4 = call noundef ptr @_ZNK7testing8internal11ThreadLocalIPNS_8SequenceEE16GetOrCreateValueEv(ptr noundef nonnull align 8 dereferenceable(16) %3)
  ret ptr %4
}

; Function Attrs: mustprogress uwtable
define linkonce_odr hidden void @_ZNSt10shared_ptrIN7testing11ExpectationEEC2IS1_vEEPT_(ptr noundef nonnull align 8 dereferenceable(16) %0, ptr noundef %1) unnamed_addr #4 comdat align 2 {
  %3 = alloca ptr, align 8
  %4 = alloca ptr, align 8
  store ptr %0, ptr %3, align 8, !tbaa !1821
  store ptr %1, ptr %4, align 8, !tbaa !1027
  %5 = load ptr, ptr %3, align 8
  %6 = load ptr, ptr %4, align 8, !tbaa !1027
  call void @_ZNSt12__shared_ptrIN7testing11ExpectationELN9__gnu_cxx12_Lock_policyE2EEC2IS1_vEEPT_(ptr noundef nonnull align 8 dereferenceable(16) %5, ptr noundef %6)
  ret void
}

; Function Attrs: mustprogress uwtable
define linkonce_odr hidden noundef ptr @_ZNK7testing8internal11ThreadLocalIPNS_8SequenceEE7pointerEv(ptr noundef nonnull align 8 dereferenceable(16) %0) #4 comdat align 2 {
  %2 = alloca ptr, align 8
  store ptr %0, ptr %2, align 8, !tbaa !1048
  %3 = load ptr, ptr %2, align 8
  %4 = call noundef ptr @_ZNK7testing8internal11ThreadLocalIPNS_8SequenceEE16GetOrCreateValueEv(ptr noundef nonnull align 8 dereferenceable(16) %3)
  ret ptr %4
}

; Function Attrs: mustprogress uwtable
define linkonce_odr hidden void @_ZN7testing8internal11ThreadLocalIPNS_8SequenceEE3setERKS3_(ptr noundef nonnull align 8 dereferenceable(16) %0, ptr noundef nonnull align 8 dereferenceable(8) %1) #4 comdat align 2 {
  %3 = alloca ptr, align 8
  %4 = alloca ptr, align 8
  store ptr %0, ptr %3, align 8, !tbaa !1048
  store ptr %1, ptr %4, align 8, !tbaa !1146
  %5 = load ptr, ptr %3, align 8
  %6 = load ptr, ptr %4, align 8, !tbaa !1146
  %7 = load ptr, ptr %6, align 8, !tbaa !1134
  %8 = call noundef ptr @_ZN7testing8internal11ThreadLocalIPNS_8SequenceEE7pointerEv(ptr noundef nonnull align 8 dereferenceable(16) %5)
  store ptr %7, ptr %8, align 8, !tbaa !1134
  ret void
}

; Function Attrs: mustprogress uwtable
define linkonce_odr hidden void @_ZN7testing8SequenceC2Ev(ptr noundef nonnull align 8 dereferenceable(16) %0) unnamed_addr #4 comdat align 2 personality ptr @__gxx_personality_v0 {
  %2 = alloca ptr, align 8
  %3 = alloca ptr, align 8
  %4 = alloca i32, align 4
  store ptr %0, ptr %2, align 8, !tbaa !1134
  %5 = load ptr, ptr %2, align 8
  %6 = getelementptr inbounds nuw %"class.testing::Sequence", ptr %5, i32 0, i32 0
  %7 = call noalias noundef nonnull ptr @_Znwm(i64 noundef 16) #33
  invoke void @_ZN7testing11ExpectationC1Ev(ptr noundef nonnull align 8 dereferenceable(16) %7)
          to label %8 unwind label %9

8:                                                ; preds = %1
  call void @_ZNSt10shared_ptrIN7testing11ExpectationEEC2IS1_vEEPT_(ptr noundef nonnull align 8 dereferenceable(16) %6, ptr noundef %7)
  ret void

9:                                                ; preds = %1
  %10 = landingpad { ptr, i32 }
          cleanup
  %11 = extractvalue { ptr, i32 } %10, 0
  store ptr %11, ptr %3, align 8
  %12 = extractvalue { ptr, i32 } %10, 1
  store i32 %12, ptr %4, align 4
  call void @_ZdlPvm(ptr noundef %7, i64 noundef 16) #34
  br label %13

13:                                               ; preds = %9
  %14 = load ptr, ptr %3, align 8
  %15 = load i32, ptr %4, align 4
  %16 = insertvalue { ptr, i32 } poison, ptr %14, 0
  %17 = insertvalue { ptr, i32 } %16, i32 %15, 1
  resume { ptr, i32 } %17
}

; Function Attrs: mustprogress uwtable
define linkonce_odr hidden noundef nonnull align 8 dereferenceable(8) ptr @_ZNK7testing8internal11ThreadLocalIPNS_8SequenceEE3getEv(ptr noundef nonnull align 8 dereferenceable(16) %0) #4 comdat align 2 {
  %2 = alloca ptr, align 8
  store ptr %0, ptr %2, align 8, !tbaa !1048
  %3 = load ptr, ptr %2, align 8
  %4 = call noundef ptr @_ZNK7testing8internal11ThreadLocalIPNS_8SequenceEE7pointerEv(ptr noundef nonnull align 8 dereferenceable(16) %3)
  ret ptr %4
}

; Function Attrs: mustprogress uwtable
define dso_local void @_ZN7testing10InSequenceC2Ev(ptr noundef nonnull align 1 dereferenceable(1) %0) unnamed_addr #4 align 2 personality ptr @__gxx_personality_v0 {
  %2 = alloca ptr, align 8
  %3 = alloca ptr, align 8
  %4 = alloca ptr, align 8
  %5 = alloca i32, align 4
  store ptr %0, ptr %2, align 8, !tbaa !1142
  %6 = load ptr, ptr %2, align 8
  %7 = call noundef nonnull align 8 dereferenceable(8) ptr @_ZNK7testing8internal11ThreadLocalIPNS_8SequenceEE3getEv(ptr noundef nonnull align 8 dereferenceable(16) @_ZN7testing8internal25g_gmock_implicit_sequenceE)
  %8 = load ptr, ptr %7, align 8, !tbaa !1134
  %9 = icmp eq ptr %8, null
  br i1 %9, label %10, label %18

10:                                               ; preds = %1
  call void @llvm.lifetime.start.p0(i64 8, ptr %3) #3
  %11 = call noalias noundef nonnull ptr @_Znwm(i64 noundef 16) #33
  invoke void @_ZN7testing8SequenceC2Ev(ptr noundef nonnull align 8 dereferenceable(16) %11)
          to label %12 unwind label %14

12:                                               ; preds = %10
  store ptr %11, ptr %3, align 8, !tbaa !1134
  call void @_ZN7testing8internal11ThreadLocalIPNS_8SequenceEE3setERKS3_(ptr noundef nonnull align 8 dereferenceable(16) @_ZN7testing8internal25g_gmock_implicit_sequenceE, ptr noundef nonnull align 8 dereferenceable(8) %3)
  call void @llvm.lifetime.end.p0(i64 8, ptr %3) #3
  %13 = getelementptr inbounds nuw %"class.testing::InSequence", ptr %6, i32 0, i32 0
  store i8 1, ptr %13, align 1, !tbaa !1144
  br label %20

14:                                               ; preds = %10
  %15 = landingpad { ptr, i32 }
          cleanup
  %16 = extractvalue { ptr, i32 } %15, 0
  store ptr %16, ptr %4, align 8
  %17 = extractvalue { ptr, i32 } %15, 1
  store i32 %17, ptr %5, align 4
  call void @_ZdlPvm(ptr noundef %11, i64 noundef 16) #34
  call void @llvm.lifetime.end.p0(i64 8, ptr %3) #3
  br label %21

18:                                               ; preds = %1
  %19 = getelementptr inbounds nuw %"class.testing::InSequence", ptr %6, i32 0, i32 0
  store i8 0, ptr %19, align 1, !tbaa !1144
  br label %20

20:                                               ; preds = %18, %12
  ret void

21:                                               ; preds = %14
  %22 = load ptr, ptr %4, align 8
  %23 = load i32, ptr %5, align 4
  %24 = insertvalue { ptr, i32 } poison, ptr %22, 0
  %25 = insertvalue { ptr, i32 } %24, i32 %23, 1
  resume { ptr, i32 } %25
}