; Function Attrs: mustprogress uwtable
define dso_local void @_ZN7testing10InSequenceC2Ev(ptr noundef nonnull writeonly align 1 captures(none) dereferenceable(1) %0) unnamed_addr #3 align 2 personality ptr @__gxx_personality_v0 {
  %2 = tail call noundef nonnull align 8 dereferenceable(8) ptr @_ZNK7testing8internal11ThreadLocalIPNS_8SequenceEE16GetOrCreateValueEv(ptr noundef nonnull align 8 dereferenceable(16) @_ZN7testing8internal25g_gmock_implicit_sequenceE)
  %3 = load ptr, ptr %2, align 8, !tbaa !2081
  %4 = icmp eq ptr %3, null
  br i1 %4, label %5, label %12

5:                                                ; preds = %1
  %6 = tail call noalias noundef nonnull dereferenceable(16) ptr @_Znwm(i64 noundef 16) #61
  %7 = invoke noalias noundef nonnull dereferenceable(16) ptr @_Znwm(i64 noundef 16) #61
          to label %.noexc unwind label %10

.noexc:                                           ; preds = %5
  tail call void @llvm.memset.p0.i64(ptr noundef nonnull align 8 dereferenceable(16) %7, i8 0, i64 16, i1 false)
  store ptr %7, ptr %6, align 8, !tbaa !2078
  %8 = getelementptr inbounds nuw i8, ptr %6, i64 8
  invoke void @_ZNSt14__shared_countILN9__gnu_cxx12_Lock_policyE2EEC2IPN7testing11ExpectationEEET_(ptr noundef nonnull align 8 dereferenceable(8) %8, ptr noundef nonnull %7)
          to label %_ZN7testing8SequenceC2Ev.exit unwind label %10

_ZN7testing8SequenceC2Ev.exit:                    ; preds = %.noexc
  %9 = tail call noundef ptr @_ZNK7testing8internal11ThreadLocalIPNS_8SequenceEE16GetOrCreateValueEv(ptr noundef nonnull align 8 dereferenceable(16) @_ZN7testing8internal25g_gmock_implicit_sequenceE)
  store ptr %6, ptr %9, align 8, !tbaa !2081
  br label %12

10:                                               ; preds = %.noexc, %5
  %11 = landingpad { ptr, i32 }
          cleanup
  tail call void @_ZdlPvm(ptr noundef nonnull %6, i64 noundef 16) #59
  resume { ptr, i32 } %11

12:                                               ; preds = %1, %_ZN7testing8SequenceC2Ev.exit
  %storemerge = phi i8 [ 1, %_ZN7testing8SequenceC2Ev.exit ], [ 0, %1 ]
  store i8 %storemerge, ptr %0, align 1, !tbaa !2083
  ret void
}